target datalayout = "e-m:e-p270:32:32-p271:32:32-p272:64:64-i64:64-i128:128-f80:128-n8:16:32:64-S128"
target triple = "x86_64-pc-linux-gnu"

%"struct.std::atomic" = type { %"struct.std::__atomic_base" }
%"struct.std::__atomic_base" = type { i32 }
%"class.pxrInternal_v0_24__pxrReserved__::Vt_ArrayBase" = type { %"struct.pxrInternal_v0_24__pxrReserved__::Vt_ShapeData", ptr }
%"struct.pxrInternal_v0_24__pxrReserved__::Vt_ShapeData" = type { i64, [3 x i32] }
%"class.pxrInternal_v0_24__pxrReserved__::VtValue" = type { %"union.std::aligned_storage<8, 8>::type", %"class.pxrInternal_v0_24__pxrReserved__::TfPointerAndBits.88" }
%"union.std::aligned_storage<8, 8>::type" = type { [8 x i8] }
%"class.pxrInternal_v0_24__pxrReserved__::TfPointerAndBits.88" = type { ptr }
%"class.pxrInternal_v0_24__pxrReserved__::VtArray.604" = type { %"class.pxrInternal_v0_24__pxrReserved__::Vt_ArrayBase", ptr }
%"class.pxrInternal_v0_24__pxrReserved__::TfDelegatedCountPtr.613" = type { ptr }
%"struct.pxrInternal_v0_24__pxrReserved__::VtValue::_Counted.614" = type <{ %"class.pxrInternal_v0_24__pxrReserved__::VtArray.604", %"struct.std::atomic", [4 x i8] }>

; Function Attrs: mustprogress nounwind uwtable
define linkonce_odr noundef i64 @_ZN32pxrInternal_v0_24__pxrReserved__16TfPointerAndBitsIKNS_7VtValue9_TypeInfoEE9_GetAlignEv() #4 comdat align 2 {
  ret i64 8
}

; Function Attrs: mustprogress nounwind uwtable
define linkonce_odr void @_ZN32pxrInternal_v0_24__pxrReserved__25TfDelegatedCountIncrementEPKNS_7VtValue8_CountedINS_7VtArrayIbEEEE(ptr noundef %0) #4 comdat {
  %2 = alloca ptr, align 8
  %3 = alloca i32, align 4
  %4 = alloca i32, align 4
  %5 = alloca i32, align 4
  %6 = alloca i32, align 4
  %7 = alloca ptr, align 8
  store ptr %0, ptr %7, align 8
  %8 = load ptr, ptr %7, align 8
  %9 = getelementptr inbounds nuw %"struct.pxrInternal_v0_24__pxrReserved__::VtValue::_Counted.614", ptr %8, i32 0, i32 1
  store ptr %9, ptr %2, align 8
  store i32 1, ptr %3, align 4
  store i32 0, ptr %4, align 4
  %10 = load ptr, ptr %2, align 8
  %11 = load i32, ptr %4, align 4
  %12 = load i32, ptr %3, align 4
  store i32 %12, ptr %5, align 4
  switch i32 %11, label %13 [
    i32 1, label %16
    i32 2, label %16
    i32 3, label %19
    i32 4, label %22
    i32 5, label %25
  ]

13:                                               ; preds = %1
  %14 = load i32, ptr %5, align 4
  %15 = atomicrmw add ptr %10, i32 %14 monotonic, align 4
  store i32 %15, ptr %6, align 4
  br label %28

16:                                               ; preds = %1, %1
  %17 = load i32, ptr %5, align 4
  %18 = atomicrmw add ptr %10, i32 %17 acquire, align 4
  store i32 %18, ptr %6, align 4
  br label %28

19:                                               ; preds = %1
  %20 = load i32, ptr %5, align 4
  %21 = atomicrmw add ptr %10, i32 %20 release, align 4
  store i32 %21, ptr %6, align 4
  br label %28

22:                                               ; preds = %1
  %23 = load i32, ptr %5, align 4
  %24 = atomicrmw add ptr %10, i32 %23 acq_rel, align 4
  store i32 %24, ptr %6, align 4
  br label %28

25:                                               ; preds = %1
  %26 = load i32, ptr %5, align 4
  %27 = atomicrmw add ptr %10, i32 %26 seq_cst, align 4
  store i32 %27, ptr %6, align 4
  br label %28

28:                                               ; preds = %25, %22, %19, %16, %13
  ret void
}

; Function Attrs: mustprogress nounwind uwtable
define linkonce_odr noundef i32 @_ZStanSt12memory_orderSt23__memory_order_modifier(i32 noundef %0, i32 noundef %1) #4 comdat {
  %3 = alloca i32, align 4
  %4 = alloca i32, align 4
  store i32 %0, ptr %3, align 4
  store i32 %1, ptr %4, align 4
  %5 = load i32, ptr %3, align 4
  %6 = load i32, ptr %4, align 4
  %7 = and i32 %5, %6
  ret i32 %7
}

; Function Attrs: noreturn nounwind uwtable
define linkonce_odr hidden void @__clang_call_terminate(ptr noundef %0) #6 comdat {
  %2 = call ptr @__cxa_begin_catch(ptr %0) #14
  call void @_ZSt9terminatev() #16
  unreachable
}

; Function Attrs: mustprogress nounwind uwtable
define linkonce_odr noundef i64 @_ZNK32pxrInternal_v0_24__pxrReserved__16TfPointerAndBitsIKNS_7VtValue9_TypeInfoEE11GetMaxValueEv(ptr noundef nonnull align 8 dereferenceable(8) %0) #4 comdat align 2 {
  %2 = alloca ptr, align 8
  store ptr %0, ptr %2, align 8
  %3 = call noundef i64 @_ZN32pxrInternal_v0_24__pxrReserved__16TfPointerAndBitsIKNS_7VtValue9_TypeInfoEE9_GetAlignEv() #14
  %4 = sub i64 %3, 1
  ret i64 %4
}

; Function Attrs: mustprogress uwtable
define linkonce_odr void @_ZN32pxrInternal_v0_24__pxrReserved__19TfDelegatedCountPtrINS_7VtValue8_CountedINS_7VtArrayIbEEEEE17_IncrementIfValidEv(ptr noundef nonnull align 8 dereferenceable(8) %0) #0 comdat align 2 {
  %2 = alloca ptr, align 8
  store ptr %0, ptr %2, align 8
  %3 = load ptr, ptr %2, align 8
  %4 = getelementptr inbounds nuw %"class.pxrInternal_v0_24__pxrReserved__::TfDelegatedCountPtr.613", ptr %3, i32 0, i32 0
  %5 = load ptr, ptr %4, align 8
  %6 = icmp ne ptr %5, null
  br i1 %6, label %7, label %10

7:                                                ; preds = %1
  %8 = getelementptr inbounds nuw %"class.pxrInternal_v0_24__pxrReserved__::TfDelegatedCountPtr.613", ptr %3, i32 0, i32 0
  %9 = load ptr, ptr %8, align 8
  call void @_ZN32pxrInternal_v0_24__pxrReserved__25TfDelegatedCountIncrementEPKNS_7VtValue8_CountedINS_7VtArrayIbEEEE(ptr noundef %9)
  br label %10

10:                                               ; preds = %7, %1
  ret void
}

; Function Attrs: mustprogress nounwind uwtable
define linkonce_odr noundef i32 @_ZNSt13__atomic_baseIiEaSEi(ptr noundef nonnull align 4 dereferenceable(4) %0, i32 noundef %1) #4 comdat align 2 {
  %3 = alloca ptr, align 8
  %4 = alloca i32, align 4
  %5 = alloca i32, align 4
  %6 = alloca i32, align 4
  %7 = alloca i32, align 4
  %8 = alloca ptr, align 8
  %9 = alloca i32, align 4
  store ptr %0, ptr %8, align 8
  store i32 %1, ptr %9, align 4
  %10 = load ptr, ptr %8, align 8
  %11 = load i32, ptr %9, align 4
  store ptr %10, ptr %3, align 8
  store i32 %11, ptr %4, align 4
  store i32 5, ptr %5, align 4
  %12 = load ptr, ptr %3, align 8
  %13 = load i32, ptr %5, align 4
  %14 = call noundef i32 @_ZStanSt12memory_orderSt23__memory_order_modifier(i32 noundef %13, i32 noundef 65535)
  store i32 %14, ptr %6, align 4
  %15 = load i32, ptr %5, align 4
  %16 = load i32, ptr %4, align 4
  store i32 %16, ptr %7, align 4
  switch i32 %15, label %17 [
    i32 3, label %19
    i32 5, label %21
  ]

17:                                               ; preds = %2
  %18 = load i32, ptr %7, align 4
  store atomic i32 %18, ptr %12 monotonic, align 4
  br label %23

19:                                               ; preds = %2
  %20 = load i32, ptr %7, align 4
  store atomic i32 %20, ptr %12 release, align 4
  br label %23

21:                                               ; preds = %2
  %22 = load i32, ptr %7, align 4
  store atomic i32 %22, ptr %12 seq_cst, align 4
  br label %23

23:                                               ; preds = %21, %19, %17
  %24 = load i32, ptr %9, align 4
  ret i32 %24
}

; Function Attrs: mustprogress nounwind uwtable
define linkonce_odr noundef ptr @_ZNK32pxrInternal_v0_24__pxrReserved__16TfPointerAndBitsIKNS_7VtValue9_TypeInfoEE6_AsPtrEm(ptr noundef nonnull align 8 dereferenceable(8) %0, i64 noundef %1) #4 comdat align 2 {
  %3 = alloca ptr, align 8
  %4 = alloca i64, align 8
  store ptr %0, ptr %3, align 8
  store i64 %1, ptr %4, align 8
  %5 = load i64, ptr %4, align 8
  %6 = inttoptr i64 %5 to ptr
  ret ptr %6
}

; Function Attrs: mustprogress nounwind uwtable
define linkonce_odr noundef i64 @_ZNK32pxrInternal_v0_24__pxrReserved__16TfPointerAndBitsIKNS_7VtValue9_TypeInfoEE11_GetBitMaskEv(ptr noundef nonnull align 8 dereferenceable(8) %0) #4 comdat align 2 personality ptr @__gxx_personality_v0 {
  %2 = alloca ptr, align 8
  store ptr %0, ptr %2, align 8
  %3 = load ptr, ptr %2, align 8
  %4 = invoke noundef i64 @_ZNK32pxrInternal_v0_24__pxrReserved__16TfPointerAndBitsIKNS_7VtValue9_TypeInfoEE11GetMaxValueEv(ptr noundef nonnull align 8 dereferenceable(8) %3)
          to label %5 unwind label %6

5:                                                ; preds = %1
  ret i64 %4

6:                                                ; preds = %1
  %7 = landingpad { ptr, i32 }
          catch ptr null
  %8 = extractvalue { ptr, i32 } %7, 0
  call void @__clang_call_terminate(ptr %8) #16
  unreachable
}

; Function Attrs: mustprogress nounwind uwtable
define linkonce_odr noundef i64 @_ZNK32pxrInternal_v0_24__pxrReserved__16TfPointerAndBitsIKNS_7VtValue9_TypeInfoEE6_AsIntEPS3_(ptr noundef nonnull align 8 dereferenceable(8) %0, ptr noundef %1) #4 comdat align 2 {
  %3 = alloca ptr, align 8
  %4 = alloca ptr, align 8
  store ptr %0, ptr %3, align 8
  store ptr %1, ptr %4, align 8
  %5 = load ptr, ptr %4, align 8
  %6 = ptrtoint ptr %5 to i64
  ret i64 %6
}

; Function Attrs: mustprogress uwtable
define linkonce_odr void @_ZN32pxrInternal_v0_24__pxrReserved__19TfDelegatedCountPtrINS_7VtValue8_CountedINS_7VtArrayIbEEEEEC2ENS_32TfDelegatedCountIncrementTagTypeEPS5_(ptr noundef nonnull align 8 dereferenceable(8) %0, ptr noundef %1) unnamed_addr #0 comdat align 2 {
  %3 = alloca ptr, align 8
  %4 = alloca ptr, align 8
  store ptr %0, ptr %3, align 8
  store ptr %1, ptr %4, align 8
  %5 = load ptr, ptr %3, align 8
  %6 = getelementptr inbounds nuw %"class.pxrInternal_v0_24__pxrReserved__::TfDelegatedCountPtr.613", ptr %5, i32 0, i32 0
  %7 = load ptr, ptr %4, align 8
  store ptr %7, ptr %6, align 8
  call void @_ZN32pxrInternal_v0_24__pxrReserved__19TfDelegatedCountPtrINS_7VtValue8_CountedINS_7VtArrayIbEEEEE17_IncrementIfValidEv(ptr noundef nonnull align 8 dereferenceable(8) %5)
  ret void
}

; Function Attrs: mustprogress uwtable
define linkonce_odr void @_ZN32pxrInternal_v0_24__pxrReserved__7VtValue8_CountedINS_7VtArrayIbEEEC2ERKS3_(ptr noundef nonnull align 8 dereferenceable(44) %0, ptr noundef nonnull align 8 dereferenceable(40) %1) unnamed_addr #0 comdat align 2 {
  %3 = alloca ptr, align 8
  %4 = alloca ptr, align 8
  store ptr %0, ptr %3, align 8
  store ptr %1, ptr %4, align 8
  %5 = load ptr, ptr %3, align 8
  %6 = getelementptr inbounds nuw %"struct.pxrInternal_v0_24__pxrReserved__::VtValue::_Counted.614", ptr %5, i32 0, i32 0
  %7 = load ptr, ptr %4, align 8
  call void @_ZN32pxrInternal_v0_24__pxrReserved__7VtArrayIbEC1ERKS1_(ptr noundef nonnull align 8 dereferenceable(40) %6, ptr noundef nonnull align 8 dereferenceable(40) %7)
  %8 = getelementptr inbounds nuw %"struct.pxrInternal_v0_24__pxrReserved__::VtValue::_Counted.614", ptr %5, i32 0, i32 1
  %9 = call noundef i32 @_ZNSt13__atomic_baseIiEaSEi(ptr noundef nonnull align 4 dereferenceable(4) %8, i32 noundef 0) #14
  ret void
}

; Function Attrs: mustprogress nounwind uwtable
define linkonce_odr noundef ptr @_ZNK32pxrInternal_v0_24__pxrReserved__16TfPointerAndBitsIKNS_7VtValue9_TypeInfoEE8_CombineEPS3_m(ptr noundef nonnull align 8 dereferenceable(8) %0, ptr noundef %1, i64 noundef %2) #4 comdat align 2 {
  %4 = alloca ptr, align 8
  %5 = alloca ptr, align 8
  %6 = alloca i64, align 8
  store ptr %0, ptr %4, align 8
  store ptr %1, ptr %5, align 8
  store i64 %2, ptr %6, align 8
  %7 = load ptr, ptr %4, align 8
  %8 = load ptr, ptr %5, align 8
  %9 = call noundef i64 @_ZNK32pxrInternal_v0_24__pxrReserved__16TfPointerAndBitsIKNS_7VtValue9_TypeInfoEE6_AsIntEPS3_(ptr noundef nonnull align 8 dereferenceable(8) %7, ptr noundef %8) #14
  %10 = load i64, ptr %6, align 8
  %11 = call noundef i64 @_ZNK32pxrInternal_v0_24__pxrReserved__16TfPointerAndBitsIKNS_7VtValue9_TypeInfoEE11_GetBitMaskEv(ptr noundef nonnull align 8 dereferenceable(8) %7) #14
  %12 = and i64 %10, %11
  %13 = or i64 %9, %12
  %14 = call noundef ptr @_ZNK32pxrInternal_v0_24__pxrReserved__16TfPointerAndBitsIKNS_7VtValue9_TypeInfoEE6_AsPtrEm(ptr noundef nonnull align 8 dereferenceable(8) %7, i64 noundef %13) #14
  ret ptr %14
}

; Function Attrs: mustprogress uwtable
define linkonce_odr void @_ZN32pxrInternal_v0_24__pxrReserved__7VtValue15_RemoteTypeInfoINS_7VtArrayIbEEE10_PlaceCopyEPNS_19TfDelegatedCountPtrINS0_8_CountedIS3_EEEERKS3_(ptr noundef %0, ptr noundef nonnull align 8 dereferenceable(40) %1) #0 comdat align 2 personality ptr @__gxx_personality_v0 {
  %3 = alloca ptr, align 8
  %4 = alloca ptr, align 8
  %5 = alloca ptr, align 8
  %6 = alloca i32, align 4
  store ptr %0, ptr %3, align 8
  store ptr %1, ptr %4, align 8
  %7 = load ptr, ptr %3, align 8
  %8 = call noalias noundef nonnull ptr @_Znwm(i64 noundef 48) #12
  %9 = load ptr, ptr %4, align 8
  invoke void @_ZN32pxrInternal_v0_24__pxrReserved__7VtValue8_CountedINS_7VtArrayIbEEEC2ERKS3_(ptr noundef nonnull align 8 dereferenceable(44) %8, ptr noundef nonnull align 8 dereferenceable(40) %9)
          to label %10 unwind label %11

10:                                               ; preds = %2
  call void @_ZN32pxrInternal_v0_24__pxrReserved__19TfDelegatedCountPtrINS_7VtValue8_CountedINS_7VtArrayIbEEEEEC2ENS_32TfDelegatedCountIncrementTagTypeEPS5_(ptr noundef nonnull align 8 dereferenceable(8) %7, ptr noundef %8)
  ret void

11:                                               ; preds = %2
  %12 = landingpad { ptr, i32 }
          cleanup
  %13 = extractvalue { ptr, i32 } %12, 0
  store ptr %13, ptr %5, align 8
  %14 = extractvalue { ptr, i32 } %12, 1
  store i32 %14, ptr %6, align 4
  call void @_ZdlPvm(ptr noundef %8, i64 noundef 48) #13
  br label %15

15:                                               ; preds = %11
  %16 = load ptr, ptr %5, align 8
  %17 = load i32, ptr %6, align 4
  %18 = insertvalue { ptr, i32 } poison, ptr %16, 0
  %19 = insertvalue { ptr, i32 } %18, i32 %17, 1
  resume { ptr, i32 } %19
}

; Function Attrs: mustprogress nounwind uwtable
define linkonce_odr noundef nonnull align 8 dereferenceable(8) ptr @_ZN32pxrInternal_v0_24__pxrReserved__7VtValue13_TypeInfoImplINS_7VtArrayIbEENS_19TfDelegatedCountPtrINS0_8_CountedIS3_EEEENS0_15_RemoteTypeInfoIS3_EEE10_ContainerERNSt15aligned_storageILm8ELm8EE4typeE(ptr noundef nonnull align 8 dereferenceable(8) %0) #4 comdat align 2 {
  %2 = alloca ptr, align 8
  store ptr %0, ptr %2, align 8
  %3 = load ptr, ptr %2, align 8
  ret ptr %3
}

; Function Attrs: mustprogress nounwind uwtable
define linkonce_odr void @_ZN32pxrInternal_v0_24__pxrReserved__16TfPointerAndBitsIKNS_7VtValue9_TypeInfoEEC2EPS3_m(ptr noundef nonnull align 8 dereferenceable(8) %0, ptr noundef %1, i64 noundef %2) unnamed_addr #4 comdat align 2 {
  %4 = alloca ptr, align 8
  %5 = alloca ptr, align 8
  %6 = alloca i64, align 8
  store ptr %0, ptr %4, align 8
  store ptr %1, ptr %5, align 8
  store i64 %2, ptr %6, align 8
  %7 = load ptr, ptr %4, align 8
  %8 = getelementptr inbounds nuw %"class.pxrInternal_v0_24__pxrReserved__::TfPointerAndBits.88", ptr %7, i32 0, i32 0
  %9 = load ptr, ptr %5, align 8
  %10 = load i64, ptr %6, align 8
  %11 = call noundef ptr @_ZNK32pxrInternal_v0_24__pxrReserved__16TfPointerAndBitsIKNS_7VtValue9_TypeInfoEE8_CombineEPS3_m(ptr noundef nonnull align 8 dereferenceable(8) %7, ptr noundef %9, i64 noundef %10) #14
  store ptr %11, ptr %8, align 8
  ret void
}

; Function Attrs: mustprogress uwtable
define linkonce_odr void @_ZN32pxrInternal_v0_24__pxrReserved__7VtValue13_TypeInfoImplINS_7VtArrayIbEENS_19TfDelegatedCountPtrINS0_8_CountedIS3_EEEENS0_15_RemoteTypeInfoIS3_EEE11CopyInitObjERKS3_RNSt15aligned_storageILm8ELm8EE4typeE(ptr noundef nonnull align 8 dereferenceable(40) %0, ptr noundef nonnull align 8 dereferenceable(8) %1) #0 comdat align 2 {
  %3 = alloca ptr, align 8
  %4 = alloca ptr, align 8
  store ptr %0, ptr %3, align 8
  store ptr %1, ptr %4, align 8
  %5 = load ptr, ptr %4, align 8
  %6 = call noundef nonnull align 8 dereferenceable(8) ptr @_ZN32pxrInternal_v0_24__pxrReserved__7VtValue13_TypeInfoImplINS_7VtArrayIbEENS_19TfDelegatedCountPtrINS0_8_CountedIS3_EEEENS0_15_RemoteTypeInfoIS3_EEE10_ContainerERNSt15aligned_storageILm8ELm8EE4typeE(ptr noundef nonnull align 8 dereferenceable(8) %5)
  %7 = load ptr, ptr %3, align 8
  call void @_ZN32pxrInternal_v0_24__pxrReserved__7VtValue15_RemoteTypeInfoINS_7VtArrayIbEEE10_PlaceCopyEPNS_19TfDelegatedCountPtrINS0_8_CountedIS3_EEEERKS3_(ptr noundef %6, ptr noundef nonnull align 8 dereferenceable(40) %7)
  ret void
}

; Function Attrs: mustprogress nounwind uwtable
define linkonce_odr ptr @_ZN32pxrInternal_v0_24__pxrReserved__7VtValue11GetTypeInfoINS_7VtArrayIbEEEENS_16TfPointerAndBitsIKNS0_9_TypeInfoEEEv() #4 comdat align 2 {
  %1 = alloca %"class.pxrInternal_v0_24__pxrReserved__::TfPointerAndBits.88", align 8
  call void @_ZN32pxrInternal_v0_24__pxrReserved__16TfPointerAndBitsIKNS_7VtValue9_TypeInfoEEC2EPS3_m(ptr noundef nonnull align 8 dereferenceable(8) %1, ptr noundef @_ZZN32pxrInternal_v0_24__pxrReserved__7VtValue11GetTypeInfoINS_7VtArrayIbEEEENS_16TfPointerAndBitsIKNS0_9_TypeInfoEEEvE2ti, i64 noundef 0) #14
  %2 = getelementptr inbounds nuw %"class.pxrInternal_v0_24__pxrReserved__::TfPointerAndBits.88", ptr %1, i32 0, i32 0
  %3 = load ptr, ptr %2, align 8
  ret ptr %3
}

; Function Attrs: mustprogress uwtable
define linkonce_odr void @_ZN32pxrInternal_v0_24__pxrReserved__7VtValue5_InitINS_7VtArrayIbEEEENSt9enable_ifIXsr3std7is_sameIT_NS_17Vt_ValueGetStoredIS5_E4TypeEEE5valueEvE4typeERKS5_(ptr noundef nonnull align 8 dereferenceable(16) %0, ptr noundef nonnull align 8 dereferenceable(40) %1) #0 comdat align 2 {
  %3 = alloca ptr, align 8
  %4 = alloca ptr, align 8
  %5 = alloca %"class.pxrInternal_v0_24__pxrReserved__::TfPointerAndBits.88", align 8
  store ptr %0, ptr %3, align 8
  store ptr %1, ptr %4, align 8
  %6 = load ptr, ptr %3, align 8
  %7 = call ptr @_ZN32pxrInternal_v0_24__pxrReserved__7VtValue11GetTypeInfoINS_7VtArrayIbEEEENS_16TfPointerAndBitsIKNS0_9_TypeInfoEEEv()
  %8 = getelementptr inbounds nuw %"class.pxrInternal_v0_24__pxrReserved__::TfPointerAndBits.88", ptr %5, i32 0, i32 0
  store ptr %7, ptr %8, align 8
  %9 = getelementptr inbounds nuw %"class.pxrInternal_v0_24__pxrReserved__::VtValue", ptr %6, i32 0, i32 1
  call void @llvm.memcpy.p0.p0.i64(ptr align 8 %9, ptr align 8 %5, i64 8, i1 false)
  %10 = load ptr, ptr %4, align 8
  %11 = getelementptr inbounds nuw %"class.pxrInternal_v0_24__pxrReserved__::VtValue", ptr %6, i32 0, i32 0
  call void @_ZN32pxrInternal_v0_24__pxrReserved__7VtValue13_TypeInfoImplINS_7VtArrayIbEENS_19TfDelegatedCountPtrINS0_8_CountedIS3_EEEENS0_15_RemoteTypeInfoIS3_EEE11CopyInitObjERKS3_RNSt15aligned_storageILm8ELm8EE4typeE(ptr noundef nonnull align 8 dereferenceable(40) %10, ptr noundef nonnull align 8 dereferenceable(8) %11)
  ret void
}

; Function Attrs: mustprogress nounwind uwtable
define linkonce_odr void @_ZN32pxrInternal_v0_24__pxrReserved__16TfPointerAndBitsIKNS_7VtValue9_TypeInfoEEC2Ev(ptr noundef nonnull align 8 dereferenceable(8) %0) unnamed_addr #4 comdat align 2 {
  %2 = alloca ptr, align 8
  store ptr %0, ptr %2, align 8
  %3 = load ptr, ptr %2, align 8
  %4 = getelementptr inbounds nuw %"class.pxrInternal_v0_24__pxrReserved__::TfPointerAndBits.88", ptr %3, i32 0, i32 0
  store ptr null, ptr %4, align 8
  ret void
}

; Function Attrs: mustprogress uwtable
define linkonce_odr void @_ZN32pxrInternal_v0_24__pxrReserved__7VtValueC2INS_7VtArrayIbEEEERKT_(ptr noundef nonnull align 8 dereferenceable(16) %0, ptr noundef nonnull align 8 dereferenceable(40) %1) unnamed_addr #0 comdat align 2 {
  %3 = alloca ptr, align 8
  %4 = alloca ptr, align 8
  store ptr %0, ptr %3, align 8
  store ptr %1, ptr %4, align 8
  %5 = load ptr, ptr %3, align 8
  %6 = getelementptr inbounds nuw %"class.pxrInternal_v0_24__pxrReserved__::VtValue", ptr %5, i32 0, i32 1
  call void @_ZN32pxrInternal_v0_24__pxrReserved__16TfPointerAndBitsIKNS_7VtValue9_TypeInfoEEC2Ev(ptr noundef nonnull align 8 dereferenceable(8) %6) #14
  %7 = load ptr, ptr %4, align 8
  call void @_ZN32pxrInternal_v0_24__pxrReserved__7VtValue5_InitINS_7VtArrayIbEEEENSt9enable_ifIXsr3std7is_sameIT_NS_17Vt_ValueGetStoredIS5_E4TypeEEE5valueEvE4typeERKS5_(ptr noundef nonnull align 8 dereferenceable(16) %5, ptr noundef nonnull align 8 dereferenceable(40) %7)
  ret void
}

; Function Attrs: mustprogress uwtable
define internal void @_ZN32pxrInternal_v0_24__pxrReserved__12_GLOBAL__N_119_ExpandedDataSourceIbE8GetValueEf(ptr dead_on_unwind noalias writable sret(%"class.pxrInternal_v0_24__pxrReserved__::VtValue") align 8 %0, ptr noundef nonnull align 8 dereferenceable(128) %1, float noundef %2) unnamed_addr #0 align 2 personality ptr @__gxx_personality_v0 {
  %4 = alloca ptr, align 8
  %5 = alloca ptr, align 8
  %6 = alloca float, align 4
  %7 = alloca %"class.pxrInternal_v0_24__pxrReserved__::VtArray.604", align 8
  %8 = alloca ptr, align 8
  %9 = alloca i32, align 4
  store ptr %0, ptr %4, align 8
  store ptr %1, ptr %5, align 8
  store float %2, ptr %6, align 4
  %10 = load ptr, ptr %5, align 8
  %11 = load float, ptr %6, align 4
  call void @_ZN32pxrInternal_v0_24__pxrReserved__12_GLOBAL__N_119_ExpandedDataSourceIbE13GetTypedValueEf(ptr dead_on_unwind writable sret(%"class.pxrInternal_v0_24__pxrReserved__::VtArray.604") align 8 %7, ptr noundef nonnull align 8 dereferenceable(128) %10, float noundef %11)
  invoke void @_ZN32pxrInternal_v0_24__pxrReserved__7VtValueC2INS_7VtArrayIbEEEERKT_(ptr noundef nonnull align 8 dereferenceable(16) %0, ptr noundef nonnull align 8 dereferenceable(40) %7)
          to label %12 unwind label %13

12:                                               ; preds = %3
  call void @_ZN32pxrInternal_v0_24__pxrReserved__7VtArrayIbED1Ev(ptr noundef nonnull align 8 dereferenceable(40) %7) #14
  ret void

13:                                               ; preds = %3
  %14 = landingpad { ptr, i32 }
          cleanup
  %15 = extractvalue { ptr, i32 } %14, 0
  store ptr %15, ptr %8, align 8
  %16 = extractvalue { ptr, i32 } %14, 1
  store i32 %16, ptr %9, align 4
  call void @_ZN32pxrInternal_v0_24__pxrReserved__7VtArrayIbED1Ev(ptr noundef nonnull align 8 dereferenceable(40) %7) #14
  br label %17

17:                                               ; preds = %13
  %18 = load ptr, ptr %8, align 8
  %19 = load i32, ptr %9, align 4
  %20 = insertvalue { ptr, i32 } poison, ptr %18, 0
  %21 = insertvalue { ptr, i32 } %20, i32 %19, 1
  resume { ptr, i32 } %21
}